target datalayout = "e-m:e-p270:32:32-p271:32:32-p272:64:64-i64:64-i128:128-f80:128-n8:16:32:64-S128"
target triple = "x86_64-pc-linux-gnu"

%struct.rows_t = type { ptr, i64, i64, i64 }
%struct.htmlparserstate_s = type { ptr, ptr, %struct.textspans_t, %struct.htextspans_t, ptr, %struct.sfont_t, ptr }
%struct.textspans_t = type { ptr, i64, i64, i64 }
%struct.htextspans_t = type { ptr, i64, i64, i64 }
%struct.sfont_t = type { ptr, i64, i64, i64 }
%struct.htmltbl_t = type { %struct.htmldata_t, %union.anon.0, i8, ptr, ptr, i64, i64, ptr, i8 }
%struct.htmldata_t = type { ptr, ptr, ptr, ptr, ptr, ptr, ptr, i32, i8, i8, i8, i8, i16, i16, i16, %struct.htmlstyle_t, %struct.boxf }
%struct.htmlstyle_t = type { i8 }
%struct.boxf = type { %struct.pointf_s, %struct.pointf_s }
%struct.pointf_s = type { double, double }
%union.anon.0 = type { %struct.anon.2 }
%struct.anon.2 = type { ptr, %struct.rows_t }
%struct.htextspan_t = type { ptr, i64, i8, double, double }
%struct.textspan_t = type { ptr, ptr, ptr, ptr, double, double, %struct.pointf_s, i8 }

; Function Attrs: inlinehint nounwind uwtable
define internal void @sfont_noop_(ptr noundef %0) #6 {
  %2 = alloca ptr, align 8
  store ptr %0, ptr %2, align 8, !tbaa !36
  ret void
}

; Function Attrs: inlinehint nounwind uwtable
define internal ptr @sfont_get(ptr noundef %0, i64 noundef %1) #6 {
  %3 = alloca ptr, align 8
  %4 = alloca i64, align 8
  store ptr %0, ptr %3, align 8, !tbaa !36
  store i64 %1, ptr %4, align 8, !tbaa !12
  %5 = load ptr, ptr %3, align 8, !tbaa !36
  %6 = getelementptr inbounds nuw %struct.sfont_t, ptr %5, i32 0, i32 0
  %7 = load ptr, ptr %6, align 8, !tbaa !131
  %8 = load ptr, ptr %3, align 8, !tbaa !36
  %9 = getelementptr inbounds nuw %struct.sfont_t, ptr %8, i32 0, i32 1
  %10 = load i64, ptr %9, align 8, !tbaa !134
  %11 = load i64, ptr %4, align 8, !tbaa !12
  %12 = add i64 %10, %11
  %13 = load ptr, ptr %3, align 8, !tbaa !36
  %14 = getelementptr inbounds nuw %struct.sfont_t, ptr %13, i32 0, i32 3
  %15 = load i64, ptr %14, align 8, !tbaa !135
  %16 = urem i64 %12, %15
  %17 = getelementptr inbounds nuw ptr, ptr %7, i64 %16
  %18 = load ptr, ptr %17, align 8, !tbaa !36
  ret ptr %18
}

; Function Attrs: inlinehint nounwind uwtable
define internal void @sfont_clear(ptr noundef %0) #6 {
  %2 = alloca ptr, align 8
  %3 = alloca i64, align 8
  store ptr %0, ptr %2, align 8, !tbaa !36
  call void @llvm.lifetime.start.p0(i64 8, ptr %3) #13
  store i64 0, ptr %3, align 8, !tbaa !12
  br label %4

4:                                                ; preds = %18, %1
  %5 = load i64, ptr %3, align 8, !tbaa !12
  %6 = load ptr, ptr %2, align 8, !tbaa !36
  %7 = getelementptr inbounds nuw %struct.sfont_t, ptr %6, i32 0, i32 2
  %8 = load i64, ptr %7, align 8, !tbaa !136
  %9 = icmp ult i64 %5, %8
  br i1 %9, label %11, label %10

10:                                               ; preds = %4
  call void @llvm.lifetime.end.p0(i64 8, ptr %3) #13
  br label %21

11:                                               ; preds = %4
  %12 = load ptr, ptr %2, align 8, !tbaa !36
  %13 = load i64, ptr %3, align 8, !tbaa !12
  %14 = call ptr @sfont_get(ptr noundef %12, i64 noundef %13)
  call void @sfont_noop_(ptr noundef %14)
  br label %15

15:                                               ; preds = %11
  br label %16

16:                                               ; preds = %15
  br label %17

17:                                               ; preds = %16
  br label %18

18:                                               ; preds = %17
  %19 = load i64, ptr %3, align 8, !tbaa !12
  %20 = add i64 %19, 1
  store i64 %20, ptr %3, align 8, !tbaa !12
  br label %4, !llvm.loop !149

21:                                               ; preds = %10
  %22 = load ptr, ptr %2, align 8, !tbaa !36
  %23 = getelementptr inbounds nuw %struct.sfont_t, ptr %22, i32 0, i32 2
  store i64 0, ptr %23, align 8, !tbaa !136
  %24 = load ptr, ptr %2, align 8, !tbaa !36
  %25 = getelementptr inbounds nuw %struct.sfont_t, ptr %24, i32 0, i32 1
  store i64 0, ptr %25, align 8, !tbaa !134
  ret void
}

; Function Attrs: inlinehint nounwind uwtable
define internal void @free_hi(ptr noundef byval(%struct.htextspan_t) align 8 %0) #6 {
  %2 = alloca i64, align 8
  call void @llvm.lifetime.start.p0(i64 8, ptr %2) #13
  store i64 0, ptr %2, align 8, !tbaa !12
  br label %3

3:                                                ; preds = %16, %1
  %4 = load i64, ptr %2, align 8, !tbaa !12
  %5 = getelementptr inbounds nuw %struct.htextspan_t, ptr %0, i32 0, i32 1
  %6 = load i64, ptr %5, align 8, !tbaa !72
  %7 = icmp ult i64 %4, %6
  br i1 %7, label %9, label %8

8:                                                ; preds = %3
  call void @llvm.lifetime.end.p0(i64 8, ptr %2) #13
  br label %19

9:                                                ; preds = %3
  %10 = getelementptr inbounds nuw %struct.htextspan_t, ptr %0, i32 0, i32 0
  %11 = load ptr, ptr %10, align 8, !tbaa !73
  %12 = load i64, ptr %2, align 8, !tbaa !12
  %13 = getelementptr inbounds nuw %struct.textspan_t, ptr %11, i64 %12
  %14 = getelementptr inbounds nuw %struct.textspan_t, ptr %13, i32 0, i32 0
  %15 = load ptr, ptr %14, align 8, !tbaa !67
  call void @free(ptr noundef %15) #13
  br label %16

16:                                               ; preds = %9
  %17 = load i64, ptr %2, align 8, !tbaa !12
  %18 = add i64 %17, 1
  store i64 %18, ptr %2, align 8, !tbaa !12
  br label %3, !llvm.loop !139

19:                                               ; preds = %8
  %20 = getelementptr inbounds nuw %struct.htextspan_t, ptr %0, i32 0, i32 0
  %21 = load ptr, ptr %20, align 8, !tbaa !73
  call void @free(ptr noundef %21) #13
  ret void
}

; Function Attrs: inlinehint nounwind uwtable
define internal void @htextspans_get(ptr dead_on_unwind noalias writable sret(%struct.htextspan_t) align 8 %0, ptr noundef %1, i64 noundef %2) #6 {
  %4 = alloca ptr, align 8
  %5 = alloca i64, align 8
  store ptr %1, ptr %4, align 8, !tbaa !36
  store i64 %2, ptr %5, align 8, !tbaa !12
  %6 = load ptr, ptr %4, align 8, !tbaa !36
  %7 = getelementptr inbounds nuw %struct.htextspans_t, ptr %6, i32 0, i32 0
  %8 = load ptr, ptr %7, align 8, !tbaa !131
  %9 = load ptr, ptr %4, align 8, !tbaa !36
  %10 = getelementptr inbounds nuw %struct.htextspans_t, ptr %9, i32 0, i32 1
  %11 = load i64, ptr %10, align 8, !tbaa !134
  %12 = load i64, ptr %5, align 8, !tbaa !12
  %13 = add i64 %11, %12
  %14 = load ptr, ptr %4, align 8, !tbaa !36
  %15 = getelementptr inbounds nuw %struct.htextspans_t, ptr %14, i32 0, i32 3
  %16 = load i64, ptr %15, align 8, !tbaa !135
  %17 = urem i64 %13, %16
  %18 = getelementptr inbounds nuw %struct.htextspan_t, ptr %8, i64 %17
  call void @llvm.memcpy.p0.p0.i64(ptr align 8 %0, ptr align 8 %18, i64 40, i1 false), !tbaa.struct !64
  ret void
}

; Function Attrs: inlinehint nounwind uwtable
define internal void @free_ti(ptr noundef byval(%struct.textspan_t) align 8 %0) #6 {
  %2 = getelementptr inbounds nuw %struct.textspan_t, ptr %0, i32 0, i32 0
  %3 = load ptr, ptr %2, align 8, !tbaa !67
  call void @free(ptr noundef %3) #13
  ret void
}

; Function Attrs: inlinehint nounwind uwtable
define internal void @textspans_get(ptr dead_on_unwind noalias writable sret(%struct.textspan_t) align 8 %0, ptr noundef %1, i64 noundef %2) #6 {
  %4 = alloca ptr, align 8
  %5 = alloca i64, align 8
  store ptr %1, ptr %4, align 8, !tbaa !36
  store i64 %2, ptr %5, align 8, !tbaa !12
  %6 = load ptr, ptr %4, align 8, !tbaa !36
  %7 = getelementptr inbounds nuw %struct.textspans_t, ptr %6, i32 0, i32 0
  %8 = load ptr, ptr %7, align 8, !tbaa !131
  %9 = load ptr, ptr %4, align 8, !tbaa !36
  %10 = getelementptr inbounds nuw %struct.textspans_t, ptr %9, i32 0, i32 1
  %11 = load i64, ptr %10, align 8, !tbaa !134
  %12 = load i64, ptr %5, align 8, !tbaa !12
  %13 = add i64 %11, %12
  %14 = load ptr, ptr %4, align 8, !tbaa !36
  %15 = getelementptr inbounds nuw %struct.textspans_t, ptr %14, i32 0, i32 3
  %16 = load i64, ptr %15, align 8, !tbaa !135
  %17 = urem i64 %13, %16
  %18 = getelementptr inbounds nuw %struct.textspan_t, ptr %8, i64 %17
  call void @llvm.memcpy.p0.p0.i64(ptr align 8 %0, ptr align 8 %18, i64 72, i1 false), !tbaa.struct !74
  ret void
}

; Function Attrs: inlinehint nounwind uwtable
define internal void @sfont_free(ptr noundef %0) #6 {
  %2 = alloca ptr, align 8
  store ptr %0, ptr %2, align 8, !tbaa !36
  %3 = load ptr, ptr %2, align 8, !tbaa !36
  call void @sfont_clear(ptr noundef %3)
  %4 = load ptr, ptr %2, align 8, !tbaa !36
  %5 = getelementptr inbounds nuw %struct.sfont_t, ptr %4, i32 0, i32 0
  %6 = load ptr, ptr %5, align 8, !tbaa !131
  call void @free(ptr noundef %6) #13
  %7 = load ptr, ptr %2, align 8, !tbaa !36
  call void @llvm.memset.p0.i64(ptr align 8 %7, i8 0, i64 32, i1 false)
  ret void
}

; Function Attrs: inlinehint nounwind uwtable
define internal void @htextspans_clear(ptr noundef %0) #6 {
  %2 = alloca ptr, align 8
  %3 = alloca i64, align 8
  %4 = alloca %struct.htextspan_t, align 8
  store ptr %0, ptr %2, align 8, !tbaa !36
  call void @llvm.lifetime.start.p0(i64 8, ptr %3) #13
  store i64 0, ptr %3, align 8, !tbaa !12
  br label %5

5:                                                ; preds = %18, %1
  %6 = load i64, ptr %3, align 8, !tbaa !12
  %7 = load ptr, ptr %2, align 8, !tbaa !36
  %8 = getelementptr inbounds nuw %struct.htextspans_t, ptr %7, i32 0, i32 2
  %9 = load i64, ptr %8, align 8, !tbaa !136
  %10 = icmp ult i64 %6, %9
  br i1 %10, label %12, label %11

11:                                               ; preds = %5
  call void @llvm.lifetime.end.p0(i64 8, ptr %3) #13
  br label %21

12:                                               ; preds = %5
  %13 = load ptr, ptr %2, align 8, !tbaa !36
  %14 = load i64, ptr %3, align 8, !tbaa !12
  call void @htextspans_get(ptr dead_on_unwind writable sret(%struct.htextspan_t) align 8 %4, ptr noundef %13, i64 noundef %14)
  call void @free_hi(ptr noundef byval(%struct.htextspan_t) align 8 %4)
  br label %15

15:                                               ; preds = %12
  br label %16

16:                                               ; preds = %15
  br label %17

17:                                               ; preds = %16
  br label %18

18:                                               ; preds = %17
  %19 = load i64, ptr %3, align 8, !tbaa !12
  %20 = add i64 %19, 1
  store i64 %20, ptr %3, align 8, !tbaa !12
  br label %5, !llvm.loop !138

21:                                               ; preds = %11
  %22 = load ptr, ptr %2, align 8, !tbaa !36
  %23 = getelementptr inbounds nuw %struct.htextspans_t, ptr %22, i32 0, i32 2
  store i64 0, ptr %23, align 8, !tbaa !136
  %24 = load ptr, ptr %2, align 8, !tbaa !36
  %25 = getelementptr inbounds nuw %struct.htextspans_t, ptr %24, i32 0, i32 1
  store i64 0, ptr %25, align 8, !tbaa !134
  ret void
}

; Function Attrs: inlinehint nounwind uwtable
define internal void @textspans_clear(ptr noundef %0) #6 {
  %2 = alloca ptr, align 8
  %3 = alloca i64, align 8
  %4 = alloca %struct.textspan_t, align 8
  store ptr %0, ptr %2, align 8, !tbaa !36
  call void @llvm.lifetime.start.p0(i64 8, ptr %3) #13
  store i64 0, ptr %3, align 8, !tbaa !12
  br label %5

5:                                                ; preds = %18, %1
  %6 = load i64, ptr %3, align 8, !tbaa !12
  %7 = load ptr, ptr %2, align 8, !tbaa !36
  %8 = getelementptr inbounds nuw %struct.textspans_t, ptr %7, i32 0, i32 2
  %9 = load i64, ptr %8, align 8, !tbaa !136
  %10 = icmp ult i64 %6, %9
  br i1 %10, label %12, label %11

11:                                               ; preds = %5
  call void @llvm.lifetime.end.p0(i64 8, ptr %3) #13
  br label %21

12:                                               ; preds = %5
  %13 = load ptr, ptr %2, align 8, !tbaa !36
  %14 = load i64, ptr %3, align 8, !tbaa !12
  call void @textspans_get(ptr dead_on_unwind writable sret(%struct.textspan_t) align 8 %4, ptr noundef %13, i64 noundef %14)
  call void @free_ti(ptr noundef byval(%struct.textspan_t) align 8 %4)
  br label %15

15:                                               ; preds = %12
  br label %16

16:                                               ; preds = %15
  br label %17

17:                                               ; preds = %16
  br label %18

18:                                               ; preds = %17
  %19 = load i64, ptr %3, align 8, !tbaa !12
  %20 = add i64 %19, 1
  store i64 %20, ptr %3, align 8, !tbaa !12
  br label %5, !llvm.loop !137

21:                                               ; preds = %11
  %22 = load ptr, ptr %2, align 8, !tbaa !36
  %23 = getelementptr inbounds nuw %struct.textspans_t, ptr %22, i32 0, i32 2
  store i64 0, ptr %23, align 8, !tbaa !136
  %24 = load ptr, ptr %2, align 8, !tbaa !36
  %25 = getelementptr inbounds nuw %struct.textspans_t, ptr %24, i32 0, i32 1
  store i64 0, ptr %25, align 8, !tbaa !134
  ret void
}

; Function Attrs: nounwind uwtable
define internal void @cleanup(ptr noundef %0) #0 {
  %2 = alloca ptr, align 8
  %3 = alloca ptr, align 8
  %4 = alloca ptr, align 8
  store ptr %0, ptr %2, align 8, !tbaa !55
  call void @llvm.lifetime.start.p0(i64 8, ptr %3) #13
  %5 = load ptr, ptr %2, align 8, !tbaa !55
  %6 = getelementptr inbounds nuw %struct.htmlparserstate_s, ptr %5, i32 0, i32 1
  %7 = load ptr, ptr %6, align 8, !tbaa !57
  store ptr %7, ptr %3, align 8, !tbaa !58
  call void @llvm.lifetime.start.p0(i64 8, ptr %4) #13
  %8 = load ptr, ptr %2, align 8, !tbaa !55
  %9 = getelementptr inbounds nuw %struct.htmlparserstate_s, ptr %8, i32 0, i32 0
  %10 = load ptr, ptr %9, align 8, !tbaa !59
  %11 = icmp ne ptr %10, null
  br i1 %11, label %12, label %18

12:                                               ; preds = %1
  %13 = load ptr, ptr %2, align 8, !tbaa !55
  %14 = getelementptr inbounds nuw %struct.htmlparserstate_s, ptr %13, i32 0, i32 0
  %15 = load ptr, ptr %14, align 8, !tbaa !59
  call void @free_html_label(ptr noundef %15, i32 noundef 1)
  %16 = load ptr, ptr %2, align 8, !tbaa !55
  %17 = getelementptr inbounds nuw %struct.htmlparserstate_s, ptr %16, i32 0, i32 0
  store ptr null, ptr %17, align 8, !tbaa !59
  br label %18

18:                                               ; preds = %12, %1
  br label %19

19:                                               ; preds = %22, %18
  %20 = load ptr, ptr %3, align 8, !tbaa !58
  %21 = icmp ne ptr %20, null
  br i1 %21, label %22, label %29

22:                                               ; preds = %19
  %23 = load ptr, ptr %3, align 8, !tbaa !58
  %24 = getelementptr inbounds nuw %struct.htmltbl_t, ptr %23, i32 0, i32 1
  %25 = getelementptr inbounds nuw %struct.anon.2, ptr %24, i32 0, i32 0
  %26 = load ptr, ptr %25, align 8, !tbaa !9
  store ptr %26, ptr %4, align 8, !tbaa !58
  %27 = load ptr, ptr %3, align 8, !tbaa !58
  call void @cleanTbl(ptr noundef %27)
  %28 = load ptr, ptr %4, align 8, !tbaa !58
  store ptr %28, ptr %3, align 8, !tbaa !58
  br label %19, !llvm.loop !60

29:                                               ; preds = %19
  %30 = load ptr, ptr %2, align 8, !tbaa !55
  %31 = getelementptr inbounds nuw %struct.htmlparserstate_s, ptr %30, i32 0, i32 2
  call void @textspans_clear(ptr noundef %31)
  %32 = load ptr, ptr %2, align 8, !tbaa !55
  %33 = getelementptr inbounds nuw %struct.htmlparserstate_s, ptr %32, i32 0, i32 3
  call void @htextspans_clear(ptr noundef %33)
  %34 = load ptr, ptr %2, align 8, !tbaa !55
  %35 = getelementptr inbounds nuw %struct.htmlparserstate_s, ptr %34, i32 0, i32 5
  call void @sfont_free(ptr noundef %35)
  call void @llvm.lifetime.end.p0(i64 8, ptr %4) #13
  call void @llvm.lifetime.end.p0(i64 8, ptr %3) #13
  ret void
}