; Function Attrs: nounwind uwtable
define internal fastcc void @cleanup(ptr noundef captures(none) %0) unnamed_addr #0 {
  %2 = getelementptr inbounds nuw i8, ptr %0, i64 8
  %3 = load ptr, ptr %2, align 8, !tbaa !48
  %4 = load ptr, ptr %0, align 8, !tbaa !49
  %.not = icmp eq ptr %4, null
  br i1 %.not, label %6, label %5

5:                                                ; preds = %1
  tail call void @free_html_label(ptr noundef nonnull %4, i32 noundef 1) #16
  store ptr null, ptr %0, align 8, !tbaa !49
  br label %6

6:                                                ; preds = %5, %1
  %.not1216 = icmp eq ptr %3, null
  br i1 %.not1216, label %._crit_edge, label %.lr.ph

.lr.ph:                                           ; preds = %6, %.lr.ph
  %.017 = phi ptr [ %8, %.lr.ph ], [ %3, %6 ]
  %7 = getelementptr inbounds nuw i8, ptr %.017, i64 104
  %8 = load ptr, ptr %7, align 8, !tbaa !3
  tail call fastcc void @cleanTbl(ptr noundef nonnull %.017)
  %.not12 = icmp eq ptr %8, null
  br i1 %.not12, label %._crit_edge, label %.lr.ph, !llvm.loop !50

._crit_edge:                                      ; preds = %.lr.ph, %6
  %9 = getelementptr inbounds nuw i8, ptr %0, i64 16
  %10 = getelementptr inbounds nuw i8, ptr %0, i64 32
  %11 = load i64, ptr %10, align 8, !tbaa !29
  %.not.i = icmp eq i64 %11, 0
  br i1 %.not.i, label %textspans_clear.exit, label %.lr.ph.i

.lr.ph.i:                                         ; preds = %._crit_edge
  %12 = getelementptr inbounds nuw i8, ptr %0, i64 24
  %13 = getelementptr inbounds nuw i8, ptr %0, i64 40
  br label %14

14:                                               ; preds = %14, %.lr.ph.i
  %.06.i = phi i64 [ 0, %.lr.ph.i ], [ %21, %14 ]
  %15 = load ptr, ptr %9, align 8, !tbaa !30, !noalias !52
  %16 = load i64, ptr %12, align 8, !tbaa !31, !noalias !52
  %17 = add i64 %16, %.06.i
  %18 = load i64, ptr %13, align 8, !tbaa !32, !noalias !52
  %19 = urem i64 %17, %18
  %20 = getelementptr inbounds nuw %struct.textspan_t, ptr %15, i64 %19
  %.sroa.0.0.copyload.i = load ptr, ptr %20, align 8, !tbaa !55
  tail call void @free(ptr noundef %.sroa.0.0.copyload.i) #16
  %21 = add nuw i64 %.06.i, 1
  %22 = load i64, ptr %10, align 8, !tbaa !29
  %23 = icmp ult i64 %21, %22
  br i1 %23, label %14, label %textspans_clear.exit, !llvm.loop !56

textspans_clear.exit:                             ; preds = %14, %._crit_edge
  %24 = getelementptr inbounds nuw i8, ptr %0, i64 24
  tail call void @llvm.memset.p0.i64(ptr noundef nonnull align 8 dereferenceable(16) %24, i8 0, i64 16, i1 false)
  %25 = getelementptr inbounds nuw i8, ptr %0, i64 48
  %26 = getelementptr inbounds nuw i8, ptr %0, i64 64
  %27 = load i64, ptr %26, align 8, !tbaa !29
  %.not.i13 = icmp eq i64 %27, 0
  br i1 %.not.i13, label %htextspans_clear.exit, label %.lr.ph.i14

.lr.ph.i14:                                       ; preds = %textspans_clear.exit
  %28 = getelementptr inbounds nuw i8, ptr %0, i64 56
  %29 = getelementptr inbounds nuw i8, ptr %0, i64 72
  br label %30

30:                                               ; preds = %free_hi.exit.i, %.lr.ph.i14
  %.07.i = phi i64 [ 0, %.lr.ph.i14 ], [ %40, %free_hi.exit.i ]
  %31 = load ptr, ptr %25, align 8, !tbaa !30, !noalias !57
  %32 = load i64, ptr %28, align 8, !tbaa !31, !noalias !57
  %33 = add i64 %32, %.07.i
  %34 = load i64, ptr %29, align 8, !tbaa !32, !noalias !57
  %35 = urem i64 %33, %34
  %36 = getelementptr inbounds nuw %struct.htextspan_t, ptr %31, i64 %35
  %.sroa.0.0.copyload.i15 = load ptr, ptr %36, align 8, !tbaa !33
  %.sroa.2.0..sroa_idx.i = getelementptr inbounds nuw i8, ptr %36, i64 8
  %.sroa.2.0.copyload.i = load i64, ptr %.sroa.2.0..sroa_idx.i, align 8, !tbaa !60
  %.not.i.i = icmp eq i64 %.sroa.2.0.copyload.i, 0
  br i1 %.not.i.i, label %free_hi.exit.i, label %.lr.ph.i.i

.lr.ph.i.i:                                       ; preds = %30, %.lr.ph.i.i
  %.01.i.i = phi i64 [ %39, %.lr.ph.i.i ], [ 0, %30 ]
  %37 = getelementptr inbounds nuw %struct.textspan_t, ptr %.sroa.0.0.copyload.i15, i64 %.01.i.i
  %38 = load ptr, ptr %37, align 8, !tbaa !61
  tail call void @free(ptr noundef %38) #16
  %39 = add nuw i64 %.01.i.i, 1
  %exitcond.not.i.i = icmp eq i64 %39, %.sroa.2.0.copyload.i
  br i1 %exitcond.not.i.i, label %free_hi.exit.i, label %.lr.ph.i.i, !llvm.loop !63

free_hi.exit.i:                                   ; preds = %.lr.ph.i.i, %30
  tail call void @free(ptr noundef %.sroa.0.0.copyload.i15) #16
  %40 = add nuw i64 %.07.i, 1
  %41 = load i64, ptr %26, align 8, !tbaa !29
  %42 = icmp ult i64 %40, %41
  br i1 %42, label %30, label %htextspans_clear.exit, !llvm.loop !64

htextspans_clear.exit:                            ; preds = %free_hi.exit.i, %textspans_clear.exit
  %43 = getelementptr inbounds nuw i8, ptr %0, i64 56
  tail call void @llvm.memset.p0.i64(ptr noundef nonnull align 8 dereferenceable(16) %43, i8 0, i64 16, i1 false)
  %44 = getelementptr inbounds nuw i8, ptr %0, i64 88
  %45 = getelementptr inbounds nuw i8, ptr %0, i64 96
  tail call void @llvm.memset.p0.i64(ptr noundef nonnull align 8 dereferenceable(16) %45, i8 0, i64 16, i1 false)
  %46 = load ptr, ptr %44, align 8, !tbaa !30
  tail call void @free(ptr noundef %46) #16
  tail call void @llvm.memset.p0.i64(ptr noundef nonnull align 8 dereferenceable(32) %44, i8 0, i64 32, i1 false)
  ret void
}